target datalayout = "e-m:e-p270:32:32-p271:32:32-p272:64:64-i64:64-i128:128-f80:128-n8:16:32:64-S128"
target triple = "x86_64-pc-linux-gnu"

%struct.ecpk_parameters_st = type { i32, %union.anon }
%union.anon = type { ptr }

@.str.2 = private unnamed_addr constant [31 x i8] c"../openssl/crypto/ec/ec_asn1.c\00", align 1
@__func__.EC_GROUP_new_from_ecpkparameters = private unnamed_addr constant [33 x i8] c"EC_GROUP_new_from_ecpkparameters\00", align 1

; Function Attrs: nounwind uwtable
define ptr @EC_GROUP_new_from_ecpkparameters(ptr noundef %0) #0 {
  %2 = alloca ptr, align 8
  %3 = alloca ptr, align 8
  %4 = alloca ptr, align 8
  %5 = alloca i32, align 4
  %6 = alloca i32, align 4
  store ptr %0, ptr %3, align 8, !tbaa !18
  call void @llvm.lifetime.start.p0(i64 8, ptr %4) #4
  store ptr null, ptr %4, align 8, !tbaa !24
  call void @llvm.lifetime.start.p0(i64 4, ptr %5) #4
  store i32 0, ptr %5, align 4, !tbaa !38
  %7 = load ptr, ptr %3, align 8, !tbaa !18
  %8 = icmp eq ptr %7, null
  br i1 %8, label %9, label %10

9:                                                ; preds = %1
  call void @ERR_new()
  call void @ERR_set_debug(ptr noundef @.str.2, i32 noundef 852, ptr noundef @__func__.EC_GROUP_new_from_ecpkparameters)
  call void (i32, i32, ptr, ...) @ERR_set_error(i32 noundef 16, i32 noundef 124, ptr noundef null)
  store ptr null, ptr %2, align 8
  store i32 1, ptr %6, align 4
  br label %51

10:                                               ; preds = %1
  %11 = load ptr, ptr %3, align 8, !tbaa !18
  %12 = getelementptr inbounds nuw %struct.ecpk_parameters_st, ptr %11, i32 0, i32 0
  %13 = load i32, ptr %12, align 8, !tbaa !68
  %14 = icmp eq i32 %13, 0
  br i1 %14, label %15, label %26

15:                                               ; preds = %10
  %16 = load ptr, ptr %3, align 8, !tbaa !18
  %17 = getelementptr inbounds nuw %struct.ecpk_parameters_st, ptr %16, i32 0, i32 1
  %18 = load ptr, ptr %17, align 8, !tbaa !49
  %19 = call i32 @OBJ_obj2nid(ptr noundef %18)
  store i32 %19, ptr %5, align 4, !tbaa !38
  %20 = load i32, ptr %5, align 4, !tbaa !38
  %21 = call ptr @EC_GROUP_new_by_curve_name(i32 noundef %20)
  store ptr %21, ptr %4, align 8, !tbaa !24
  %22 = icmp eq ptr %21, null
  br i1 %22, label %23, label %24

23:                                               ; preds = %15
  call void @ERR_new()
  call void @ERR_set_debug(ptr noundef @.str.2, i32 noundef 860, ptr noundef @__func__.EC_GROUP_new_from_ecpkparameters)
  call void (i32, i32, ptr, ...) @ERR_set_error(i32 noundef 16, i32 noundef 119, ptr noundef null)
  store ptr null, ptr %2, align 8
  store i32 1, ptr %6, align 4
  br label %51

24:                                               ; preds = %15
  %25 = load ptr, ptr %4, align 8, !tbaa !24
  call void @EC_GROUP_set_asn1_flag(ptr noundef %25, i32 noundef 1)
  br label %49

26:                                               ; preds = %10
  %27 = load ptr, ptr %3, align 8, !tbaa !18
  %28 = getelementptr inbounds nuw %struct.ecpk_parameters_st, ptr %27, i32 0, i32 0
  %29 = load i32, ptr %28, align 8, !tbaa !68
  %30 = icmp eq i32 %29, 1
  br i1 %30, label %31, label %41

31:                                               ; preds = %26
  %32 = load ptr, ptr %3, align 8, !tbaa !18
  %33 = getelementptr inbounds nuw %struct.ecpk_parameters_st, ptr %32, i32 0, i32 1
  %34 = load ptr, ptr %33, align 8, !tbaa !49
  %35 = call ptr @EC_GROUP_new_from_ecparameters(ptr noundef %34)
  store ptr %35, ptr %4, align 8, !tbaa !24
  %36 = load ptr, ptr %4, align 8, !tbaa !24
  %37 = icmp ne ptr %36, null
  br i1 %37, label %39, label %38

38:                                               ; preds = %31
  call void @ERR_new()
  call void @ERR_set_debug(ptr noundef @.str.2, i32 noundef 868, ptr noundef @__func__.EC_GROUP_new_from_ecpkparameters)
  call void (i32, i32, ptr, ...) @ERR_set_error(i32 noundef 16, i32 noundef 524304, ptr noundef null)
  store ptr null, ptr %2, align 8
  store i32 1, ptr %6, align 4
  br label %51

39:                                               ; preds = %31
  %40 = load ptr, ptr %4, align 8, !tbaa !24
  call void @EC_GROUP_set_asn1_flag(ptr noundef %40, i32 noundef 0)
  br label %48

41:                                               ; preds = %26
  %42 = load ptr, ptr %3, align 8, !tbaa !18
  %43 = getelementptr inbounds nuw %struct.ecpk_parameters_st, ptr %42, i32 0, i32 0
  %44 = load i32, ptr %43, align 8, !tbaa !68
  %45 = icmp eq i32 %44, 2
  br i1 %45, label %46, label %47

46:                                               ; preds = %41
  store ptr null, ptr %2, align 8
  store i32 1, ptr %6, align 4
  br label %51

47:                                               ; preds = %41
  call void @ERR_new()
  call void @ERR_set_debug(ptr noundef @.str.2, i32 noundef 876, ptr noundef @__func__.EC_GROUP_new_from_ecpkparameters)
  call void (i32, i32, ptr, ...) @ERR_set_error(i32 noundef 16, i32 noundef 115, ptr noundef null)
  store ptr null, ptr %2, align 8
  store i32 1, ptr %6, align 4
  br label %51

48:                                               ; preds = %39
  br label %49

49:                                               ; preds = %48, %24
  %50 = load ptr, ptr %4, align 8, !tbaa !24
  store ptr %50, ptr %2, align 8
  store i32 1, ptr %6, align 4
  br label %51

51:                                               ; preds = %49, %47, %46, %38, %23, %9
  call void @llvm.lifetime.end.p0(i64 4, ptr %5) #4
  call void @llvm.lifetime.end.p0(i64 8, ptr %4) #4
  %52 = load ptr, ptr %2, align 8
  ret ptr %52
}