; Function Attrs: nounwind uwtable
define ptr @EC_GROUP_new_from_ecpkparameters(ptr noundef readonly captures(address_is_null) %0) local_unnamed_addr #0 {
  %2 = icmp eq ptr %0, null
  br i1 %2, label %3, label %4

3:                                                ; preds = %1
  tail call void @ERR_new() #8
  tail call void @ERR_set_debug(ptr noundef nonnull @.str.2, i32 noundef 852, ptr noundef nonnull @__func__.EC_GROUP_new_from_ecpkparameters) #8
  tail call void (i32, i32, ptr, ...) @ERR_set_error(i32 noundef 16, i32 noundef 124, ptr noundef null) #8
  br label %21

4:                                                ; preds = %1
  %5 = load i32, ptr %0, align 8, !tbaa !44
  switch i32 %5, label %20 [
    i32 0, label %6
    i32 1, label %14
    i32 2, label %21
  ]

6:                                                ; preds = %4
  %7 = getelementptr inbounds nuw i8, ptr %0, i64 8
  %8 = load ptr, ptr %7, align 8, !tbaa !18
  %9 = tail call i32 @OBJ_obj2nid(ptr noundef %8) #8
  %10 = tail call ptr @EC_GROUP_new_by_curve_name(i32 noundef %9) #8
  %11 = icmp eq ptr %10, null
  br i1 %11, label %12, label %13

12:                                               ; preds = %6
  tail call void @ERR_new() #8
  tail call void @ERR_set_debug(ptr noundef nonnull @.str.2, i32 noundef 860, ptr noundef nonnull @__func__.EC_GROUP_new_from_ecpkparameters) #8
  tail call void (i32, i32, ptr, ...) @ERR_set_error(i32 noundef 16, i32 noundef 119, ptr noundef null) #8
  br label %21

13:                                               ; preds = %6
  tail call void @EC_GROUP_set_asn1_flag(ptr noundef nonnull %10, i32 noundef 1) #8
  br label %21

14:                                               ; preds = %4
  %15 = getelementptr inbounds nuw i8, ptr %0, i64 8
  %16 = load ptr, ptr %15, align 8, !tbaa !18
  %17 = tail call ptr @EC_GROUP_new_from_ecparameters(ptr noundef %16)
  %.not = icmp eq ptr %17, null
  br i1 %.not, label %18, label %19

18:                                               ; preds = %14
  tail call void @ERR_new() #8
  tail call void @ERR_set_debug(ptr noundef nonnull @.str.2, i32 noundef 868, ptr noundef nonnull @__func__.EC_GROUP_new_from_ecpkparameters) #8
  tail call void (i32, i32, ptr, ...) @ERR_set_error(i32 noundef 16, i32 noundef 524304, ptr noundef null) #8
  br label %21

19:                                               ; preds = %14
  tail call void @EC_GROUP_set_asn1_flag(ptr noundef nonnull %17, i32 noundef 0) #8
  br label %21

20:                                               ; preds = %4
  tail call void @ERR_new() #8
  tail call void @ERR_set_debug(ptr noundef nonnull @.str.2, i32 noundef 876, ptr noundef nonnull @__func__.EC_GROUP_new_from_ecpkparameters) #8
  tail call void (i32, i32, ptr, ...) @ERR_set_error(i32 noundef 16, i32 noundef 115, ptr noundef null) #8
  br label %21

21:                                               ; preds = %13, %19, %4, %20, %18, %12, %3
  %.011 = phi ptr [ null, %3 ], [ null, %12 ], [ null, %18 ], [ null, %20 ], [ null, %4 ], [ %10, %13 ], [ %17, %19 ]
  ret ptr %.011
}